; Function Attrs: nounwind uwtable
define dso_local void @Curl_freeset(ptr noundef %0) local_unnamed_addr #0 {
  %2 = getelementptr inbounds nuw i8, ptr %0, i64 1816
  br label %4

.preheader:                                       ; preds = %4
  %3 = getelementptr inbounds nuw i8, ptr %0, i64 2320
  br label %8

4:                                                ; preds = %1, %4
  %indvars.iv = phi i64 [ 0, %1 ], [ %indvars.iv.next, %4 ]
  %5 = load ptr, ptr @Curl_cfree, align 8, !tbaa !4
  %6 = getelementptr inbounds nuw [63 x ptr], ptr %2, i64 0, i64 %indvars.iv
  %7 = load ptr, ptr %6, align 8, !tbaa !8
  tail call void %5(ptr noundef %7) #12
  store ptr null, ptr %6, align 8, !tbaa !8
  %indvars.iv.next = add nuw nsw i64 %indvars.iv, 1
  %exitcond.not = icmp eq i64 %indvars.iv.next, 63
  br i1 %exitcond.not, label %.preheader, label %4, !llvm.loop !10

8:                                                ; preds = %.preheader, %8
  %indvars.iv29 = phi i64 [ 0, %.preheader ], [ %indvars.iv.next30, %8 ]
  %9 = load ptr, ptr @Curl_cfree, align 8, !tbaa !4
  %10 = getelementptr inbounds nuw [8 x ptr], ptr %3, i64 0, i64 %indvars.iv29
  %11 = load ptr, ptr %10, align 8, !tbaa !12
  tail call void %9(ptr noundef %11) #12
  store ptr null, ptr %10, align 8, !tbaa !12
  %indvars.iv.next30 = add nuw nsw i64 %indvars.iv29, 1
  %exitcond32.not = icmp eq i64 %indvars.iv.next30, 8
  br i1 %exitcond32.not, label %12, label %8, !llvm.loop !14

12:                                               ; preds = %8
  %13 = getelementptr inbounds nuw i8, ptr %0, i64 4876
  %14 = load i32, ptr %13, align 4
  %15 = and i32 %14, 131072
  %.not = icmp eq i32 %15, 0
  br i1 %.not, label %22, label %16

16:                                               ; preds = %12
  %17 = load ptr, ptr @Curl_cfree, align 8, !tbaa !4
  %18 = getelementptr inbounds nuw i8, ptr %0, i64 4488
  %19 = load ptr, ptr %18, align 8, !tbaa !15
  tail call void %17(ptr noundef %19) #12
  %20 = load i32, ptr %13, align 4
  %21 = and i32 %20, -131073
  store i32 %21, ptr %13, align 4
  br label %22

22:                                               ; preds = %16, %12
  %23 = phi i32 [ %21, %16 ], [ %14, %12 ]
  %24 = getelementptr inbounds nuw i8, ptr %0, i64 4488
  store ptr null, ptr %24, align 8, !tbaa !15
  %25 = and i32 %23, 65536
  %.not25 = icmp eq i32 %25, 0
  br i1 %.not25, label %32, label %26

26:                                               ; preds = %22
  %27 = load ptr, ptr @Curl_cfree, align 8, !tbaa !4
  %28 = getelementptr inbounds nuw i8, ptr %0, i64 4480
  %29 = load ptr, ptr %28, align 8, !tbaa !83
  tail call void %27(ptr noundef %29) #12
  %30 = load i32, ptr %13, align 4
  %31 = and i32 %30, -65537
  store i32 %31, ptr %13, align 4
  br label %32

32:                                               ; preds = %26, %22
  %33 = getelementptr inbounds nuw i8, ptr %0, i64 4480
  store ptr null, ptr %33, align 8, !tbaa !83
  %34 = getelementptr inbounds nuw i8, ptr %0, i64 856
  tail call void @Curl_mime_cleanpart(ptr noundef nonnull %34) #12
  %35 = getelementptr inbounds nuw i8, ptr %0, i64 4704
  %36 = load ptr, ptr %35, align 8, !tbaa !84
  tail call void @curl_slist_free_all(ptr noundef %36) #12
  store ptr null, ptr %35, align 8, !tbaa !84
  ret void
}